; Function Attrs: mustprogress uwtable
define void @_ZNK8QuantLib9AssetSwap12fetchResultsEPKNS_13PricingEngine7resultsE(ptr noundef nonnull align 8 dereferenceable(336) %this, ptr noundef %r) unnamed_addr #8 align 2 {
entry:
  tail call void @_ZNK8QuantLib4Swap12fetchResultsEPKNS_13PricingEngine7resultsE(ptr noundef nonnull align 8 dereferenceable(256) %this, ptr noundef %r)
  %0 = icmp eq ptr %r, null
  br i1 %0, label %if.else, label %dynamic_cast.end

dynamic_cast.end:                                 ; preds = %entry
  %1 = tail call ptr @__dynamic_cast(ptr nonnull %r, ptr nonnull @_ZTIN8QuantLib13PricingEngine7resultsE, ptr nonnull @_ZTIN8QuantLib9AssetSwap7resultsE, i64 -1) #29
  %cmp.not = icmp eq ptr %1, null
  br i1 %cmp.not, label %if.else, label %if.then

if.then:                                          ; preds = %dynamic_cast.end
  %fairSpread = getelementptr inbounds nuw i8, ptr %1, i64 184
  %2 = load double, ptr %fairSpread, align 8, !tbaa !184
  %fairSpread_ = getelementptr inbounds nuw i8, ptr %this, i64 312
  store double %2, ptr %fairSpread_, align 8, !tbaa !179
  %fairCleanPrice = getelementptr inbounds nuw i8, ptr %1, i64 192
  %3 = load double, ptr %fairCleanPrice, align 8, !tbaa !188
  %fairCleanPrice_ = getelementptr inbounds nuw i8, ptr %this, i64 320
  store double %3, ptr %fairCleanPrice_, align 8, !tbaa !181
  %fairNonParRepayment = getelementptr inbounds nuw i8, ptr %1, i64 200
  %4 = load double, ptr %fairNonParRepayment, align 8, !tbaa !189
  br label %if.end

if.else:                                          ; preds = %entry, %dynamic_cast.end
  %fairSpread_2 = getelementptr inbounds nuw i8, ptr %this, i64 312
  store double 0x47EFFFFFE0000000, ptr %fairSpread_2, align 8, !tbaa !179
  %fairCleanPrice_5 = getelementptr inbounds nuw i8, ptr %this, i64 320
  store double 0x47EFFFFFE0000000, ptr %fairCleanPrice_5, align 8, !tbaa !181
  br label %if.end

if.end:                                           ; preds = %if.else, %if.then
  %.sink = phi double [ 0x47EFFFFFE0000000, %if.else ], [ %4, %if.then ]
  %fairNonParRepayment_8 = getelementptr inbounds nuw i8, ptr %this, i64 328
  store double %.sink, ptr %fairNonParRepayment_8, align 8, !tbaa !183
  ret void
}